target datalayout = "e-m:e-p270:32:32-p271:32:32-p272:64:64-i64:64-i128:128-f80:128-n8:16:32:64-S128"
target triple = "x86_64-pc-linux-gnu"

%struct.Node = type { i32 }
%struct.Plan = type { i32, i32, double, double, double, i32, i8, i8, i8, i32, ptr, ptr, ptr, ptr, ptr, ptr, ptr }
%struct.Group = type { %struct.Plan, i32, ptr, ptr, ptr }

; Function Attrs: inlinehint nounwind willreturn memory(read) uwtable
define available_externally double @atof(ptr noundef nonnull %0) #6 {
  %2 = alloca ptr, align 8
  store ptr %0, ptr %2, align 8
  %3 = load ptr, ptr %2, align 8
  %4 = call double @strtod(ptr noundef %3, ptr noundef null) #9
  ret double %4
}

; Function Attrs: inlinehint nounwind willreturn memory(read) uwtable
define available_externally i32 @atoi(ptr noundef nonnull %0) #6 {
  %2 = alloca ptr, align 8
  store ptr %0, ptr %2, align 8
  %3 = load ptr, ptr %2, align 8
  %4 = call i64 @strtol(ptr noundef %3, ptr noundef null, i32 noundef 10) #9
  %5 = trunc i64 %4 to i32
  ret i32 %5
}

; Function Attrs: inlinehint nounwind uwtable
define internal ptr @newNode(i64 noundef %0, i32 noundef %1) #7 {
  %3 = alloca i64, align 8
  %4 = alloca i32, align 4
  %5 = alloca ptr, align 8
  store i64 %0, ptr %3, align 8
  store i32 %1, ptr %4, align 4
  call void @llvm.lifetime.start.p0(i64 8, ptr %5) #9
  %6 = load i64, ptr %3, align 8
  %7 = call ptr @palloc0(i64 noundef %6)
  store ptr %7, ptr %5, align 8
  %8 = load i32, ptr %4, align 4
  %9 = load ptr, ptr %5, align 8
  %10 = getelementptr inbounds nuw %struct.Node, ptr %9, i32 0, i32 0
  store i32 %8, ptr %10, align 4
  %11 = load ptr, ptr %5, align 8
  call void @llvm.lifetime.end.p0(i64 8, ptr %5) #9
  ret ptr %11
}

; Function Attrs: nounwind uwtable
define internal ptr @_readGroup() #0 {
  %1 = alloca ptr, align 8
  %2 = alloca ptr, align 8
  %3 = alloca i32, align 4
  call void @llvm.lifetime.start.p0(i64 8, ptr %1) #9
  %4 = call ptr @newNode(i64 noundef 136, i32 noundef 363)
  store ptr %4, ptr %1, align 8
  call void @llvm.lifetime.start.p0(i64 8, ptr %2) #9
  call void @llvm.lifetime.start.p0(i64 4, ptr %3) #9
  %5 = call ptr @pg_strtok(ptr noundef %3)
  store ptr %5, ptr %2, align 8
  %6 = call ptr @pg_strtok(ptr noundef %3)
  store ptr %6, ptr %2, align 8
  %7 = load ptr, ptr %2, align 8
  %8 = call i32 @atoi(ptr noundef %7) #11
  %9 = load ptr, ptr %1, align 8
  %10 = getelementptr inbounds nuw %struct.Group, ptr %9, i32 0, i32 0
  %11 = getelementptr inbounds nuw %struct.Plan, ptr %10, i32 0, i32 1
  store i32 %8, ptr %11, align 4
  %12 = call ptr @pg_strtok(ptr noundef %3)
  store ptr %12, ptr %2, align 8
  %13 = call ptr @pg_strtok(ptr noundef %3)
  store ptr %13, ptr %2, align 8
  %14 = load ptr, ptr %2, align 8
  %15 = call double @atof(ptr noundef %14) #11
  %16 = load ptr, ptr %1, align 8
  %17 = getelementptr inbounds nuw %struct.Group, ptr %16, i32 0, i32 0
  %18 = getelementptr inbounds nuw %struct.Plan, ptr %17, i32 0, i32 2
  store double %15, ptr %18, align 8
  %19 = call ptr @pg_strtok(ptr noundef %3)
  store ptr %19, ptr %2, align 8
  %20 = call ptr @pg_strtok(ptr noundef %3)
  store ptr %20, ptr %2, align 8
  %21 = load ptr, ptr %2, align 8
  %22 = call double @atof(ptr noundef %21) #11
  %23 = load ptr, ptr %1, align 8
  %24 = getelementptr inbounds nuw %struct.Group, ptr %23, i32 0, i32 0
  %25 = getelementptr inbounds nuw %struct.Plan, ptr %24, i32 0, i32 3
  store double %22, ptr %25, align 8
  %26 = call ptr @pg_strtok(ptr noundef %3)
  store ptr %26, ptr %2, align 8
  %27 = call ptr @pg_strtok(ptr noundef %3)
  store ptr %27, ptr %2, align 8
  %28 = load ptr, ptr %2, align 8
  %29 = call double @atof(ptr noundef %28) #11
  %30 = load ptr, ptr %1, align 8
  %31 = getelementptr inbounds nuw %struct.Group, ptr %30, i32 0, i32 0
  %32 = getelementptr inbounds nuw %struct.Plan, ptr %31, i32 0, i32 4
  store double %29, ptr %32, align 8
  %33 = call ptr @pg_strtok(ptr noundef %3)
  store ptr %33, ptr %2, align 8
  %34 = call ptr @pg_strtok(ptr noundef %3)
  store ptr %34, ptr %2, align 8
  %35 = load ptr, ptr %2, align 8
  %36 = call i32 @atoi(ptr noundef %35) #11
  %37 = load ptr, ptr %1, align 8
  %38 = getelementptr inbounds nuw %struct.Group, ptr %37, i32 0, i32 0
  %39 = getelementptr inbounds nuw %struct.Plan, ptr %38, i32 0, i32 5
  store i32 %36, ptr %39, align 8
  %40 = call ptr @pg_strtok(ptr noundef %3)
  store ptr %40, ptr %2, align 8
  %41 = call ptr @pg_strtok(ptr noundef %3)
  store ptr %41, ptr %2, align 8
  %42 = load ptr, ptr %2, align 8
  %43 = load i8, ptr %42, align 1
  %44 = sext i8 %43 to i32
  %45 = icmp eq i32 %44, 116
  %46 = select i1 %45, i32 1, i32 0
  %47 = icmp ne i32 %46, 0
  %48 = load ptr, ptr %1, align 8
  %49 = getelementptr inbounds nuw %struct.Group, ptr %48, i32 0, i32 0
  %50 = getelementptr inbounds nuw %struct.Plan, ptr %49, i32 0, i32 6
  %51 = zext i1 %47 to i8
  store i8 %51, ptr %50, align 4
  %52 = call ptr @pg_strtok(ptr noundef %3)
  store ptr %52, ptr %2, align 8
  %53 = call ptr @pg_strtok(ptr noundef %3)
  store ptr %53, ptr %2, align 8
  %54 = load ptr, ptr %2, align 8
  %55 = load i8, ptr %54, align 1
  %56 = sext i8 %55 to i32
  %57 = icmp eq i32 %56, 116
  %58 = select i1 %57, i32 1, i32 0
  %59 = icmp ne i32 %58, 0
  %60 = load ptr, ptr %1, align 8
  %61 = getelementptr inbounds nuw %struct.Group, ptr %60, i32 0, i32 0
  %62 = getelementptr inbounds nuw %struct.Plan, ptr %61, i32 0, i32 7
  %63 = zext i1 %59 to i8
  store i8 %63, ptr %62, align 1
  %64 = call ptr @pg_strtok(ptr noundef %3)
  store ptr %64, ptr %2, align 8
  %65 = call ptr @pg_strtok(ptr noundef %3)
  store ptr %65, ptr %2, align 8
  %66 = load ptr, ptr %2, align 8
  %67 = load i8, ptr %66, align 1
  %68 = sext i8 %67 to i32
  %69 = icmp eq i32 %68, 116
  %70 = select i1 %69, i32 1, i32 0
  %71 = icmp ne i32 %70, 0
  %72 = load ptr, ptr %1, align 8
  %73 = getelementptr inbounds nuw %struct.Group, ptr %72, i32 0, i32 0
  %74 = getelementptr inbounds nuw %struct.Plan, ptr %73, i32 0, i32 8
  %75 = zext i1 %71 to i8
  store i8 %75, ptr %74, align 2
  %76 = call ptr @pg_strtok(ptr noundef %3)
  store ptr %76, ptr %2, align 8
  %77 = call ptr @pg_strtok(ptr noundef %3)
  store ptr %77, ptr %2, align 8
  %78 = load ptr, ptr %2, align 8
  %79 = call i32 @atoi(ptr noundef %78) #11
  %80 = load ptr, ptr %1, align 8
  %81 = getelementptr inbounds nuw %struct.Group, ptr %80, i32 0, i32 0
  %82 = getelementptr inbounds nuw %struct.Plan, ptr %81, i32 0, i32 9
  store i32 %79, ptr %82, align 8
  %83 = call ptr @pg_strtok(ptr noundef %3)
  store ptr %83, ptr %2, align 8
  %84 = call ptr @nodeRead(ptr noundef null, i32 noundef 0)
  %85 = load ptr, ptr %1, align 8
  %86 = getelementptr inbounds nuw %struct.Group, ptr %85, i32 0, i32 0
  %87 = getelementptr inbounds nuw %struct.Plan, ptr %86, i32 0, i32 10
  store ptr %84, ptr %87, align 8
  %88 = call ptr @pg_strtok(ptr noundef %3)
  store ptr %88, ptr %2, align 8
  %89 = call ptr @nodeRead(ptr noundef null, i32 noundef 0)
  %90 = load ptr, ptr %1, align 8
  %91 = getelementptr inbounds nuw %struct.Group, ptr %90, i32 0, i32 0
  %92 = getelementptr inbounds nuw %struct.Plan, ptr %91, i32 0, i32 11
  store ptr %89, ptr %92, align 8
  %93 = call ptr @pg_strtok(ptr noundef %3)
  store ptr %93, ptr %2, align 8
  %94 = call ptr @nodeRead(ptr noundef null, i32 noundef 0)
  %95 = load ptr, ptr %1, align 8
  %96 = getelementptr inbounds nuw %struct.Group, ptr %95, i32 0, i32 0
  %97 = getelementptr inbounds nuw %struct.Plan, ptr %96, i32 0, i32 12
  store ptr %94, ptr %97, align 8
  %98 = call ptr @pg_strtok(ptr noundef %3)
  store ptr %98, ptr %2, align 8
  %99 = call ptr @nodeRead(ptr noundef null, i32 noundef 0)
  %100 = load ptr, ptr %1, align 8
  %101 = getelementptr inbounds nuw %struct.Group, ptr %100, i32 0, i32 0
  %102 = getelementptr inbounds nuw %struct.Plan, ptr %101, i32 0, i32 13
  store ptr %99, ptr %102, align 8
  %103 = call ptr @pg_strtok(ptr noundef %3)
  store ptr %103, ptr %2, align 8
  %104 = call ptr @nodeRead(ptr noundef null, i32 noundef 0)
  %105 = load ptr, ptr %1, align 8
  %106 = getelementptr inbounds nuw %struct.Group, ptr %105, i32 0, i32 0
  %107 = getelementptr inbounds nuw %struct.Plan, ptr %106, i32 0, i32 14
  store ptr %104, ptr %107, align 8
  %108 = call ptr @pg_strtok(ptr noundef %3)
  store ptr %108, ptr %2, align 8
  %109 = call ptr @_readBitmapset()
  %110 = load ptr, ptr %1, align 8
  %111 = getelementptr inbounds nuw %struct.Group, ptr %110, i32 0, i32 0
  %112 = getelementptr inbounds nuw %struct.Plan, ptr %111, i32 0, i32 15
  store ptr %109, ptr %112, align 8
  %113 = call ptr @pg_strtok(ptr noundef %3)
  store ptr %113, ptr %2, align 8
  %114 = call ptr @_readBitmapset()
  %115 = load ptr, ptr %1, align 8
  %116 = getelementptr inbounds nuw %struct.Group, ptr %115, i32 0, i32 0
  %117 = getelementptr inbounds nuw %struct.Plan, ptr %116, i32 0, i32 16
  store ptr %114, ptr %117, align 8
  %118 = call ptr @pg_strtok(ptr noundef %3)
  store ptr %118, ptr %2, align 8
  %119 = call ptr @pg_strtok(ptr noundef %3)
  store ptr %119, ptr %2, align 8
  %120 = load ptr, ptr %2, align 8
  %121 = call i32 @atoi(ptr noundef %120) #11
  %122 = load ptr, ptr %1, align 8
  %123 = getelementptr inbounds nuw %struct.Group, ptr %122, i32 0, i32 1
  store i32 %121, ptr %123, align 8
  %124 = call ptr @pg_strtok(ptr noundef %3)
  store ptr %124, ptr %2, align 8
  %125 = load ptr, ptr %1, align 8
  %126 = getelementptr inbounds nuw %struct.Group, ptr %125, i32 0, i32 1
  %127 = load i32, ptr %126, align 8
  %128 = call ptr @readAttrNumberCols(i32 noundef %127)
  %129 = load ptr, ptr %1, align 8
  %130 = getelementptr inbounds nuw %struct.Group, ptr %129, i32 0, i32 2
  store ptr %128, ptr %130, align 8
  %131 = call ptr @pg_strtok(ptr noundef %3)
  store ptr %131, ptr %2, align 8
  %132 = load ptr, ptr %1, align 8
  %133 = getelementptr inbounds nuw %struct.Group, ptr %132, i32 0, i32 1
  %134 = load i32, ptr %133, align 8
  %135 = call ptr @readOidCols(i32 noundef %134)
  %136 = load ptr, ptr %1, align 8
  %137 = getelementptr inbounds nuw %struct.Group, ptr %136, i32 0, i32 3
  store ptr %135, ptr %137, align 8
  %138 = call ptr @pg_strtok(ptr noundef %3)
  store ptr %138, ptr %2, align 8
  %139 = load ptr, ptr %1, align 8
  %140 = getelementptr inbounds nuw %struct.Group, ptr %139, i32 0, i32 1
  %141 = load i32, ptr %140, align 8
  %142 = call ptr @readOidCols(i32 noundef %141)
  %143 = load ptr, ptr %1, align 8
  %144 = getelementptr inbounds nuw %struct.Group, ptr %143, i32 0, i32 4
  store ptr %142, ptr %144, align 8
  %145 = load ptr, ptr %1, align 8
  call void @llvm.lifetime.end.p0(i64 4, ptr %3) #9
  call void @llvm.lifetime.end.p0(i64 8, ptr %2) #9
  call void @llvm.lifetime.end.p0(i64 8, ptr %1) #9
  ret ptr %145
}